MPASM 5.86                          MAIN.ASM   12-9-2024  17:02:30         PAGE  1


LOC  OBJECT CODE     LINE SOURCE TEXT
  VALUE

                      00001 ;   Programme du tutorial TP FIP2
                      00002 ;       
                      00003 
                      00004 ;   Defining assembling parameters
                      00005     LIST            p=16f877
                      00006     INCLUDE         "p16f877.inc"
                      00001         LIST
                      00002 
                      00003 ;==========================================================================
                      00004 ; Build date : Oct 24 2019
                      00005 ;  MPASM PIC16F877 processor include
                      00006 ; 
                      00007 ;  (c) Copyright 1999-2019 Microchip Technology, All rights reserved
                      00008 ;==========================================================================
                      00009 
                      00541         LIST
                      00007     ERRORLEVEL      -302                ; No warnings about banksel
                      00008     ERRORLEVEL      -205                ; No warnings about found directives
                      00009  
                      00010 ; ------------------------------------------------------------------------------
                      00011 ; MEMORY
                      00012 ; ------------------------------------------------------------------------------
                      00013     ; General usage variables
Warning[207]: Found label after column 1. (CVT)
  00000020            00014     CVT         EQU         20h
Warning[207]: Found label after column 1. (CNT)
  00000021            00015     CNT         EQU         21h
Warning[207]: Found label after column 1. (SUM)
  00000022            00016     SUM         EQU         22h
Warning[207]: Found label after column 1. (SAV)
  00000023            00017     SAV         EQU         23h
Warning[207]: Found label after column 1. (CNT2)
  00000024            00018     CNT2        EQU         24h
                      00019 
                      00020     ; Output buffer
Warning[207]: Found label after column 1. (OUT1)
  00000030            00021     OUT1        EQU         30h
Warning[207]: Found label after column 1. (OUT2)
  00000031            00022     OUT2        EQU         31h
Warning[207]: Found label after column 1. (OUT3)
  00000032            00023     OUT3        EQU         32h
Warning[207]: Found label after column 1. (OUT4)
  00000033            00024     OUT4        EQU         33h 
Warning[207]: Found label after column 1. (OUT5)
  00000034            00025     OUT5        EQU         34h
                      00026         
                      00027     ; Interrupt counter
Warning[207]: Found label after column 1. (INT_CNT)
  00000040            00028     INT_CNT     EQU         40h
Warning[207]: Found label after column 1. (LAST_CHAR)
  00000041            00029     LAST_CHAR   EQU         41h
                      00030    
                      00031     ; Operating mode store
MPASM 5.86                          MAIN.ASM   12-9-2024  17:02:30         PAGE  2


LOC  OBJECT CODE     LINE SOURCE TEXT
  VALUE

Warning[207]: Found label after column 1. (MODE)
  00000050            00032     MODE        EQU         50h
                      00033     
                      00034     
                      00035     
                      00036     
                      00037     
                      00038 ;   CONFIG
                      00039 ;   __config 0xFF39
2007   3F3A           00040     __CONFIG _FOSC_HS & _WDTE_OFF & _PWRTE_OFF & _CP_OFF & _BOREN_OFF & _LVP_OFF & _CPD_OFF & _WRT_ON
                      00041     
                      00042 ;   Start at the reset vector
                      00043     ORG     0x000
0000   0000           00044     NOP
                      00045     
                      00046 ; ------------------------------------------------------------------------------
                      00047 ; JUMP TO INIT
                      00048 ; ------------------------------------------------------------------------------
                      00049     
0001   2???           00050     GOTO        init
                      00051     
                      00052 ; ------------------------------------------------------------------------------
                      00053 ; INTERRUPT ROUTINES
                      00054 ; ------------------------------------------------------------------------------
                      00055     ; Interrupt vector
                      00056     ORG     0x004
                      00057     
0004                  00058 INTERRUPT_HANDLER:
0004   1283 1303      00059     BANKSEL         PIR1
0006   180C           00060     BTFSC           PIR1,   TMR1IF          ; Handle Timer 1 Interrupt
0007   2???           00061         CALL        TIMER1_INTERRUPT
                      00062         
0008   1A8C           00063     BTFSC           PIR1,   RCIF            
0009   2???           00064         CALL        USART_INTERRUPT         ; Handle Timer 0 Interrupt
                      00065 
000A   0009           00066     RETFIE                                  ; Return from interrupt
                      00067         
                      00068 ; ------------------------------------------------------------------------------
                      00069 ; INTERRUPTS INITIALIZATION
                      00070 ; ------------------------------------------------------------------------------
000B                  00071 INT_INIT:
000B   1683 1303      00072     BANKSEL         PIE1
000D   3021           00073     MOVLW           B'00100001'     ; /
                      00074                                     ; /
                      00075                                     ; USART Reception interrupt
                      00076                                     ; /
                      00077                                     ; /
                      00078                                     ; /
                      00079                                     ; /
                      00080                                     ; Timer 1 IF
000E   008C           00081     MOVWF           PIE1
                      00082     
000F   1283 1303      00083     BANKSEL         INTCON
MPASM 5.86                          MAIN.ASM   12-9-2024  17:02:30         PAGE  3


LOC  OBJECT CODE     LINE SOURCE TEXT
  VALUE

0011   30C1           00084     MOVLW           B'11000001'     ; GIE
                      00085                                     ; PEIE (For Timer 1)
                      00086                                     ; /
                      00087                                     ; /
                      00088                                     ; /
                      00089                                     ; /
                      00090                                     ; /
                      00091                                     ; /
0012   008B           00092     MOVWF           INTCON
                      00093     
0013   1283 1303      00094     BANKSEL         PIR1            
0015   100C           00095     BCF             PIR1,   TMR1IF  ; Clear Interrupt flags
0016   128C           00096     BCF             PIR1,   RCIF
                      00097     
0017   3000           00098     MOVLW           0x00
0018   00D0           00099     MOVWF           MODE            ; Initialize the operating mode
                      00100     
                      00101 
                      00102 ; ------------------------------------------------------------------------------
                      00103 ; ADC
                      00104 ; ------------------------------------------------------------------------------
                      00105     
0019                  00106 ADC_INIT:
                      00107     ; Initilize the USART peripheral.
                      00108     ; Used register : W
0019   1683 1303      00109     BANKSEL     ADCON1
                      00110     
001B   300E           00111     MOVLW       B'00001110'     ; Left justifY
                      00112                                 ; 1 analog channel
                      00113                                 ; VDD and VSS references
001C   009F           00114     MOVWF       ADCON1          
                      00115 
001D   1283 1303      00116     BANKSEL     ADCON0  
001F   3041           00117     MOVLW       B'01000001'     ; Fosc/8
                      00118                                 ; A/D enabled
0020   009F           00119     MOVWF       ADCON0
                      00120        
0021   0008           00121     RETURN                      ; End of function
                      00122     
                      00123 ; ------------------------------------------------------------------------------
                      00124     
0022                  00125 ADC_CONVERT:
                      00126     ; Transmit the value of W over USART
                      00127     ; Used register : W
                      00128     ; Return registe : W
                      00129     
0022   151F           00130     BSF         ADCON0,     GO
                      00131     
0023   0008           00132     RETURN
                      00133     
0024                  00134 ADC_GET:
                      00135     ; ADC Convert shall be runned before
                      00136     ; Used register : /
MPASM 5.86                          MAIN.ASM   12-9-2024  17:02:30         PAGE  4


LOC  OBJECT CODE     LINE SOURCE TEXT
  VALUE

                      00137     
0024   2???           00138     CALL        ADC_CONVERT         ; Start the conversion
                      00139     
0025   191F           00140     BTFSC       ADCON0,     GO      ; Waiting for the conversion to end
0026   2???           00141         GOTO    ADC_GET
                      00142 
0027   0008           00143     RETURN                          ; End of function
                      00144     
                      00145 ; ------------------------------------------------------------------------------
                      00146 ; USART
                      00147 ; ------------------------------------------------------------------------------
                      00148     
0028                  00149 USART_INIT:
                      00150     ; Initilize the USART peripheral.
                      00151     ; Used register : W
                      00152     
0028   1683 1303      00153     BANKSEL         TRISC
002A   30BF           00154     MOVLW           B'10111111'     ; TX as OUT (RC6), RX as IN (RC7)
002B   0087           00155     MOVWF           TRISC
                      00156 
002C   1683 1303      00157     BANKSEL         SPBRG
002E   3033           00158     MOVLW           .51             ; Baud rate divider for 9600 (9615 exactly)
002F   0099           00159     MOVWF           SPBRG
                      00160 
0030   1683 1303      00161     BANKSEL         TXSTA
0032   3024           00162     MOVLW           B'00100100'     ; Don't care.
                      00163                                     ; 8 bit data
                      00164                                     ; Transmit enable
                      00165                                     ; Asynchronous
                      00166                                     ; /
                      00167                                     ; High speed mode
                      00168                                     ; Transmit status bit empty
                      00169                                     ; 9th bit of data (unused)
0033   0098           00170     MOVWF           TXSTA
                      00171 
0034   1283 1303      00172     BANKSEL         RCSTA
0036   3090           00173     MOVLW           B'10010000'     ; Serial port Enabled
                      00174                                     ; 8 bit data
                      00175                                     ; Don't care
                      00176                                     ; Continous receive enabled
                      00177                                     ; Disable address
                      00178                                     ; No framing error
                      00179                                     ; No overrun error
                      00180                                     ; 9th bit of data (unused)
0037   0098           00181     MOVWF           RCSTA
                      00182        
0038   0008           00183     RETURN                          ; End of function
                      00184     
                      00185 ; ------------------------------------------------------------------------------
                      00186     
0039                  00187 USART_SEND:
                      00188     ; Transmit the value of W over USART
                      00189     ; Used register : W
MPASM 5.86                          MAIN.ASM   12-9-2024  17:02:30         PAGE  5


LOC  OBJECT CODE     LINE SOURCE TEXT
  VALUE

                      00190     
0039   1683 1303      00191     BANKSEL         TXSTA           ; Selection of bank
                      00192     
003B   1C98           00193     BTFSS           TXSTA, TRMT     ; Check register status
003C   2???           00194         GOTO        USART_SEND
                      00195     
003D   1283 1303      00196     BANKSEL         TXREG           ; Select TXREG Bank
003F   0099           00197     MOVWF           TXREG           ; Write A to TXREG
                      00198     
0040   0008           00199     RETURN                          ; End of function
                      00200     
0041                  00201 USART_SEND_ADC_BUF:                 ; Send the ADC output buffer, char by char and add \r\n
0041   0830           00202     MOVFW           OUT1
0042   2???           00203     CALL            USART_SEND
                      00204     
0043   0831           00205     MOVFW           OUT2
0044   2???           00206     CALL            USART_SEND
                      00207     
0045   0832           00208     MOVFW           OUT3
0046   2???           00209     CALL            USART_SEND
                      00210     
0047   0833           00211     MOVFW           OUT4
0048   2???           00212     CALL            USART_SEND
                      00213     
0049   0834           00214     MOVFW           OUT5
004A   2???           00215     CALL            USART_SEND
                      00216     
004B   300D           00217     MOVLW           '\r'
004C   2???           00218     CALL            USART_SEND
                      00219     
004D   300A           00220     MOVLW           '\n'
004E   2???           00221     CALL            USART_SEND
                      00222     
004F   0008           00223     RETURN
                      00224     
                      00225 ; ------------------------------------------------------------------------------
                      00226     
0050                  00227 USART_INTERRUPT:
0050   1683 1303      00228     BANKSEL         PIE1
0052   1E8C           00229     BTFSS           PIE1,   RCIE    ; Exit if not enabled
0053   0008           00230         RETURN
                      00231     
0054   1283 1303      00232     BANKSEL         RCREG           
0056   081A           00233     MOVFW           RCREG           ; Perform a read on the RCREG.
                      00234                                     ; The hardware also clear the PIR1 : RCIF if there isn't anymore rea
                            d to be done
0057   00C1           00235     MOVWF           LAST_CHAR
                      00236     
0058   3061           00237     MOVLW           'a'             ; Automatic mode
0059   0241           00238     SUBWF           LAST_CHAR,  W
005A   1903 2???      00239     BZ              AUTOMATIC
005C   3041           00240     MOVLW           'A'
005D   0241           00241     SUBWF           LAST_CHAR,  W
MPASM 5.86                          MAIN.ASM   12-9-2024  17:02:30         PAGE  6


LOC  OBJECT CODE     LINE SOURCE TEXT
  VALUE

005E   1903 2???      00242     BZ              AUTOMATIC
                      00243    
0060   3072           00244     MOVLW           'r'             ; Manual mode
0061   0241           00245     SUBWF           LAST_CHAR,  W
0062   1903 2???      00246     BZ              MANUAL
0064   3052           00247     MOVLW           'R'
0065   0241           00248     SUBWF           LAST_CHAR,  W
0066   1903 2???      00249     BZ              MANUAL
                      00250     
0068   3064           00251     MOVLW           'd'             ; Measure needed
0069   0241           00252     SUBWF           LAST_CHAR,  W
006A   1903 2???      00253     BZ              REQUEST
006C   3044           00254     MOVLW           'D'
006D   0241           00255     SUBWF           LAST_CHAR,  W
006E   1903 2???      00256     BZ              REQUEST
                      00257     
0070   0008           00258     RETURN                          ; Any other character will end up here
                      00259                                 
0071                  00260 AUTOMATIC:                                  
0071   1283 1303      00261     BANKSEL         T1CON
0073   1410           00262     BSF             T1CON,      TMR1ON  ; Simply enable the timer 1 operation
                      00263     
0074   3000           00264     MOVLW           0x00
0075   00D0           00265     MOVWF           MODE                ; Store the mode operation here
                      00266     
0076   0008           00267     RETURN
                      00268     
0077                  00269 MANUAL:
0077   1283 1303      00270     BANKSEL         T1CON
0079   1010           00271     BCF             T1CON,      TMR1ON  ; Simply disable the timer 1 operation
                      00272     
007A   3001           00273     MOVLW           0x01
007B   00D0           00274     MOVWF           MODE                ; Store the mode operation here
                      00275     
007C   0008           00276     RETURN
                      00277     
007D                  00278 REQUEST:
007D   3001           00279     MOVLW           0x01
007E   0250           00280     SUBWF           MODE,       W       ; Check the operating mode
                      00281     
007F   1903 2???      00282     BZ              MEASURE 
                      00283     
0081   0008           00284     RETURN
                      00285     
0082                  00286 MEASURE:                                ; Print measure
0082   2???           00287     CALL            ADC_GET
0083   081E           00288     MOVFW           ADRESH              ; Copy the result into W
0084   2???           00289     CALL            GET_VOLT
0085   2???           00290     CALL            USART_SEND_ADC_BUF  ; Write the output buffer
0086   0008           00291     RETURN
                      00292     
                      00293 ; ------------------------------------------------------------------------------
                      00294 ; TIMER 1
MPASM 5.86                          MAIN.ASM   12-9-2024  17:02:30         PAGE  7


LOC  OBJECT CODE     LINE SOURCE TEXT
  VALUE

                      00295 ; ------------------------------------------------------------------------------
                      00296 
0087                  00297 TIMER1_INIT:
0087   1283 1303      00298     BANKSEL         T1CON
0089   3031           00299     MOVLW           B'00110001'     ; /
                      00300                                     ; /
                      00301                                     ; 1:8 Prescale
                      00302                                     ; No oscillator
                      00303                                     ; /
                      00304                                     ; Internal clock (Fosc / 4)
                      00305                                     ; Timer Enabled
008A   0090           00306     MOVWF           T1CON
                      00307        
008B   0008           00308     RETURN                          ; End of function
                      00309     
Warning[207]: Found label after column 1. (TIMER1_INTERRUPT)
008C                  00310  TIMER1_INTERRUPT:
008C   1683 1303      00311     BANKSEL         PIE1
008E   1C0C           00312     BTFSS           PIE1,   TMR1IE  ; Exit if not enabled
008F   0008           00313         RETURN
                      00314     
0090   1283 1303      00315     BANKSEL         PIR1            
0092   100C           00316     BCF             PIR1,   TMR1IF  ; Clear Interrupt pin
                      00317     
0093   1283 1303      00318     BANKSEL         TMR1H           ; Load 15 535 to trigger interrupt every 50 000
0095   303B           00319     MOVLW           0x3B
0096   008F           00320     MOVWF           TMR1H
0097   30CA           00321     MOVLW           0xCA
0098   008E           00322     MOVWF           TMR1L
                      00323     
Message[305]: Using default destination of 1 (file).
0099   0AC0           00324     INCF            INT_CNT         ; Increment the interrupt counter. Located on the same bank as TMR1H
                      00325     
009A   3005           00326     MOVLW           .5
009B   0240           00327     SUBWF           INT_CNT,   W
                      00328     
009C   1903 2???      00329     BZ              TRIGGERED_INT   ; Continue the interrupt
009E   0008           00330     RETURN
                      00331     
009F                  00332 TRIGGERED_INT:
009F   3000           00333     MOVLW           .0              ; Reset the counter
00A0   00C0           00334     MOVWF           INT_CNT
                      00335     
00A1   2???           00336     CALL            ADC_GET
00A2   081E           00337     MOVFW           ADRESH          ; Copy the result into W
                      00338     
00A3   2???           00339     CALL            GET_VOLT
                      00340 
00A4   2???           00341     CALL            USART_SEND_ADC_BUF  ; Write the output buffer
                      00342     
00A5   0008           00343     RETURN
                      00344     
                      00345 ; ------------------------------------------------------------------------------
MPASM 5.86                          MAIN.ASM   12-9-2024  17:02:30         PAGE  8


LOC  OBJECT CODE     LINE SOURCE TEXT
  VALUE

                      00346 ; CONVERSION
                      00347 ; ------------------------------------------------------------------------------
00A6                  00348 GET_VOLT:
                      00349     ; Get the integer part of the voltage
                      00350     ; Used register : W
                      00351     ; Input register : W
                      00352     ; Return register : OUT1
                      00353     
00A6   1283 1303      00354     BANKSEL         TMR0            ; Dummy selection of the bank 0$
                      00355     
00A8   00A0           00356     MOVWF           CVT             ; Place W into CVT and SAV
00A9   00A3           00357     MOVWF           SAV
                      00358     
00AA   3000           00359     MOVLW           .0
00AB   00A1           00360     MOVWF           CNT             ; Initialize counters at 0
00AC   00A4           00361     MOVWF           CNT2
                      00362     
00AD   00B0           00363     MOVWF           OUT1            ; Clearing the output buffer
00AE   00B1           00364     MOVWF           OUT2
00AF   00B2           00365     MOVWF           OUT3
00B0   00B3           00366     MOVWF           OUT4
00B1   00B4           00367     MOVWF           OUT5
                      00368         
00B2   00A2           00369     MOVWF           SUM             ; Clearing the sum
                      00370 
00B3                  00371 CVT_SUB:                            ; Routine to get the integer part of the measure
00B3   1003           00372     CLRC                            ; Clear carry
00B4   3033           00373     MOVLW           .51             ; Place 51 in the W register
00B5   0220           00374     SUBWF           CVT,    W       ; Remove 51 of CVT
00B6   00A0           00375     MOVWF           CVT
                      00376     
00B7   1C03 2???      00377     BNC             CVT_INT         ; Exit if negative found
                      00378     
Message[305]: Using default destination of 1 (file).
00B9   0AA1           00379     INCF            CNT             ; If not carry nor zero : Increment and restart
                      00380     
00BA   0822           00381     MOVFW           SUM             ; Increment the integer part register
00BB   3E33           00382     ADDLW           .51
00BC   00A2           00383     MOVWF           SUM
                      00384     
00BD   2???           00385     GOTO            CVT_SUB         ; Jump
                      00386         
00BE                  00387 CVT_INT:
00BE   0821           00388     MOVFW           CNT
00BF   3E30           00389     ADDLW           30h             ; Convert to ASCII character
                      00390     
00C0   00B0           00391     MOVWF           OUT1            ; Copy into output buffer
                      00392     
00C1   0822           00393     MOVFW           SUM             ; Substract the sum of 551 to the input value
Message[305]: Using default destination of 1 (file).
00C2   02A3           00394     SUBWF           SAV             ; Now, SAV contain the difference between integer and input.
                      00395 
00C3                  00396 CVT_SUB2:
MPASM 5.86                          MAIN.ASM   12-9-2024  17:02:30         PAGE  9


LOC  OBJECT CODE     LINE SOURCE TEXT
  VALUE

00C3   3005           00397     MOVLW           .5              ; Place 5 in the W register
00C4   0223           00398     SUBWF           SAV,    W       ; Remove 51 of CVT
00C5   00A3           00399     MOVWF           SAV
                      00400     
00C6   1C03 2???      00401     BNC             CVT_END         ; Exit if negative found
                      00402     
Message[305]: Using default destination of 1 (file).
00C8   0AA4           00403     INCF            CNT2            ; If not carry nor zero : Increment and restart
                      00404     
00C9   2???           00405     GOTO            CVT_SUB2        ; Jump
                      00406         
00CA                  00407 CVT_END:                            ; Formatting the output by sending the right characters
00CA   0821           00408     MOVFW           CNT
00CB   3E30           00409     ADDLW           30h
00CC   00B0           00410     MOVWF           OUT1
                      00411     
00CD   302C           00412     MOVLW           ','
00CE   00B1           00413     MOVWF           OUT2
                      00414     
00CF   0824           00415     MOVFW           CNT2            ; Print the value
00D0   3E30           00416     ADDLW           30h
00D1   00B2           00417     MOVWF           OUT3
                      00418     
00D2   303A           00419     MOVLW           ':'
00D3   0232           00420     SUBWF           OUT3,   W
                      00421     
00D4   1903 2???      00422     BZ              Double
00D6   2???           00423     GOTO            NoDouble        ; No action
                      00424     
00D7                  00425 Double:
00D7   3039           00426     MOVLW           '9'             ; Print 9
00D8   00B2           00427     MOVWF           OUT3
00D9   2???           00428     GOTO            NextChar
                      00429     
00DA                  00430 NoDouble:
00DA   0824           00431     MOVFW           CNT2            ; Print the value
00DB   3E30           00432     ADDLW           30h
00DC   00B2           00433     MOVWF           OUT3
                      00434     
00DD                  00435 NextChar:
00DD   3020           00436     MOVLW           ' '
00DE   00B3           00437     MOVWF           OUT4
                      00438     
00DF   3056           00439     MOVLW           'V'
00E0   00B4           00440     MOVWF           OUT5
                      00441     
00E1   0008           00442     RETURN
                      00443     
                      00444 ; ------------------------------------------------------------------------------
                      00445 ; MAIN
                      00446 ; ------------------------------------------------------------------------------
                      00447 
00E2                  00448 init:
MPASM 5.86                          MAIN.ASM   12-9-2024  17:02:30         PAGE 10


LOC  OBJECT CODE     LINE SOURCE TEXT
  VALUE

                      00449     ; Config Serial port (RX)
00E2   2???           00450     CALL            USART_INIT
                      00451     
                      00452     ; Config ADC readings.
00E3   2???           00453     CALL            ADC_INIT
                      00454     
                      00455     ; Configure the interrupt subsystem
00E4   2???           00456     CALL            INT_INIT
                      00457     
                      00458     ; Configure the timer 1
00E5   2???           00459     CALL            TIMER1_INIT
                      00460     
                      00461     ; Jump to the start
00E6   2???           00462     GOTO            start
                      00463     
00E7                  00464 start:
00E7   2???           00465     GOTO            start
3F3A                  00466     END                              ; Fin du code
MPASM 5.86                          MAIN.ASM   12-9-2024  17:02:30         PAGE 11


SYMBOL TABLE
  LABEL                             VALUE 

ACKDT                             00000005
ACKEN                             00000004
ACKSTAT                           00000006
ADCON0                            0000001F
ADCON1                            0000009F
ADCS0                             00000006
ADCS1                             00000007
ADC_CONVERT                       00000022
ADC_GET                           00000024
ADC_INIT                          00000019
ADDEN                             00000003
ADFM                              00000007
ADIE                              00000006
ADIF                              00000006
ADON                              00000000
ADRESH                            0000001E
ADRESL                            0000009E
AUTOMATIC                         00000071
BCLIE                             00000003
BCLIF                             00000003
BF                                00000000
BRGH                              00000002
C                                 00000000
CCP1CON                           00000017
CCP1IE                            00000002
CCP1IF                            00000002
CCP1M0                            00000000
CCP1M1                            00000001
CCP1M2                            00000002
CCP1M3                            00000003
CCP1X                             00000005
CCP1Y                             00000004
CCP2CON                           0000001D
CCP2IE                            00000000
CCP2IF                            00000000
CCP2M0                            00000000
CCP2M1                            00000001
CCP2M2                            00000002
CCP2M3                            00000003
CCP2X                             00000005
CCP2Y                             00000004
CCPR1                             00000015
CCPR1H                            00000016
CCPR1L                            00000015
CCPR2                             0000001B
CCPR2H                            0000001C
CCPR2L                            0000001B
CHS0                              00000003
CHS1                              00000004
CHS2                              00000005
CKE                               00000006
CKP                               00000004
CNT                               00000021
MPASM 5.86                          MAIN.ASM   12-9-2024  17:02:30         PAGE 12


SYMBOL TABLE
  LABEL                             VALUE 

CNT2                              00000024
CREN                              00000004
CSRC                              00000007
CVT                               00000020
CVT_END                           000000CA
CVT_INT                           000000BE
CVT_SUB                           000000B3
CVT_SUB2                          000000C3
D                                 00000005
DATA_ADDRESS                      00000005
DC                                00000001
D_A                               00000005
D_NOT_A                           00000005
Double                            000000D7
EEADR                             0000010D
EEADRH                            0000010F
EECON1                            0000018C
EECON2                            0000018D
EEDATA                            0000010C
EEDATH                            0000010E
EEIE                              00000004
EEIF                              00000004
EEPGD                             00000007
F                                 00000001
FERR                              00000002
FSR                               00000004
GCEN                              00000007
GET_VOLT                          000000A6
GIE                               00000007
GO                                00000002
GO_DONE                           00000002
GO_NOT_DONE                       00000002
I2C_DATA                          00000005
I2C_READ                          00000002
I2C_START                         00000003
I2C_STOP                          00000004
IBF                               00000007
IBOV                              00000005
INDF                              00000000
INTCON                            0000000B
INTE                              00000004
INTEDG                            00000006
INTERRUPT_HANDLER                 00000004
INTF                              00000001
INT_CNT                           00000040
INT_INIT                          0000000B
IRP                               00000007
LAST_CHAR                         00000041
MANUAL                            00000077
MEASURE                           00000082
MODE                              00000050
NOT_A                             00000005
NOT_ADDRESS                       00000005
MPASM 5.86                          MAIN.ASM   12-9-2024  17:02:30         PAGE 13


SYMBOL TABLE
  LABEL                             VALUE 

NOT_BO                            00000000
NOT_BOR                           00000000
NOT_DONE                          00000002
NOT_PD                            00000003
NOT_POR                           00000001
NOT_RBPU                          00000007
NOT_RC8                           00000006
NOT_T1SYNC                        00000002
NOT_TO                            00000004
NOT_TX8                           00000006
NOT_W                             00000002
NOT_WRITE                         00000002
NextChar                          000000DD
NoDouble                          000000DA
OBF                               00000006
OERR                              00000001
OPTION_REG                        00000081
OUT1                              00000030
OUT2                              00000031
OUT3                              00000032
OUT4                              00000033
OUT5                              00000034
P                                 00000004
PCFG0                             00000000
PCFG1                             00000001
PCFG2                             00000002
PCFG3                             00000003
PCL                               00000002
PCLATH                            0000000A
PCON                              0000008E
PEIE                              00000006
PEN                               00000002
PIE1                              0000008C
PIE2                              0000008D
PIR1                              0000000C
PIR2                              0000000D
PORTA                             00000005
PORTB                             00000006
PORTC                             00000007
PORTD                             00000008
PORTE                             00000009
PR2                               00000092
PS0                               00000000
PS1                               00000001
PS2                               00000002
PSA                               00000003
PSPIE                             00000007
PSPIF                             00000007
PSPMODE                           00000004
R                                 00000002
RA0                               00000000
RA1                               00000001
RA2                               00000002
MPASM 5.86                          MAIN.ASM   12-9-2024  17:02:30         PAGE 14


SYMBOL TABLE
  LABEL                             VALUE 

RA3                               00000003
RA4                               00000004
RA5                               00000005
RB0                               00000000
RB1                               00000001
RB2                               00000002
RB3                               00000003
RB4                               00000004
RB5                               00000005
RB6                               00000006
RB7                               00000007
RBIE                              00000003
RBIF                              00000000
RC0                               00000000
RC1                               00000001
RC2                               00000002
RC3                               00000003
RC4                               00000004
RC5                               00000005
RC6                               00000006
RC7                               00000007
RC8_9                             00000006
RC9                               00000006
RCD8                              00000000
RCEN                              00000003
RCIE                              00000005
RCIF                              00000005
RCREG                             0000001A
RCSTA                             00000018
RD                                00000000
RD0                               00000000
RD1                               00000001
RD2                               00000002
RD3                               00000003
RD4                               00000004
RD5                               00000005
RD6                               00000006
RD7                               00000007
RE0                               00000000
RE1                               00000001
RE2                               00000002
READ_WRITE                        00000002
REQUEST                           0000007D
RP0                               00000005
RP1                               00000006
RSEN                              00000001
RX9                               00000006
RX9D                              00000000
R_NOT_W                           00000002
R_W                               00000002
S                                 00000003
SAV                               00000023
SEN                               00000000
MPASM 5.86                          MAIN.ASM   12-9-2024  17:02:30         PAGE 15


SYMBOL TABLE
  LABEL                             VALUE 

SMP                               00000007
SPBRG                             00000099
SPEN                              00000007
SREN                              00000005
SSPADD                            00000093
SSPBUF                            00000013
SSPCON                            00000014
SSPCON2                           00000091
SSPEN                             00000005
SSPIE                             00000003
SSPIF                             00000003
SSPM0                             00000000
SSPM1                             00000001
SSPM2                             00000002
SSPM3                             00000003
SSPOV                             00000006
SSPSTAT                           00000094
STATUS                            00000003
SUM                               00000022
SYNC                              00000004
T0CS                              00000005
T0IE                              00000005
T0IF                              00000002
T0SE                              00000004
T1CKPS0                           00000004
T1CKPS1                           00000005
T1CON                             00000010
T1INSYNC                          00000002
T1OSCEN                           00000003
T1SYNC                            00000002
T2CKPS0                           00000000
T2CKPS1                           00000001
T2CON                             00000012
TIMER1_INIT                       00000087
TIMER1_INTERRUPT                  0000008C
TMR0                              00000001
TMR0IE                            00000005
TMR0IF                            00000002
TMR1                              0000000E
TMR1CS                            00000001
TMR1H                             0000000F
TMR1IE                            00000000
TMR1IF                            00000000
TMR1L                             0000000E
TMR1ON                            00000000
TMR2                              00000011
TMR2IE                            00000001
TMR2IF                            00000001
TMR2ON                            00000002
TOUTPS0                           00000003
TOUTPS1                           00000004
TOUTPS2                           00000005
TOUTPS3                           00000006
MPASM 5.86                          MAIN.ASM   12-9-2024  17:02:30         PAGE 16


SYMBOL TABLE
  LABEL                             VALUE 

TRIGGERED_INT                     0000009F
TRISA                             00000085
TRISA0                            00000000
TRISA1                            00000001
TRISA2                            00000002
TRISA3                            00000003
TRISA4                            00000004
TRISA5                            00000005
TRISB                             00000086
TRISB0                            00000000
TRISB1                            00000001
TRISB2                            00000002
TRISB3                            00000003
TRISB4                            00000004
TRISB5                            00000005
TRISB6                            00000006
TRISB7                            00000007
TRISC                             00000087
TRISC0                            00000000
TRISC1                            00000001
TRISC2                            00000002
TRISC3                            00000003
TRISC4                            00000004
TRISC5                            00000005
TRISC6                            00000006
TRISC7                            00000007
TRISD                             00000088
TRISD0                            00000000
TRISD1                            00000001
TRISD2                            00000002
TRISD3                            00000003
TRISD4                            00000004
TRISD5                            00000005
TRISD6                            00000006
TRISD7                            00000007
TRISE                             00000089
TRISE0                            00000000
TRISE1                            00000001
TRISE2                            00000002
TRMT                              00000001
TX8_9                             00000006
TX9                               00000006
TX9D                              00000000
TXD8                              00000000
TXEN                              00000005
TXIE                              00000004
TXIF                              00000004
TXREG                             00000019
TXSTA                             00000098
UA                                00000001
USART_INIT                        00000028
USART_INTERRUPT                   00000050
USART_SEND                        00000039
MPASM 5.86                          MAIN.ASM   12-9-2024  17:02:30         PAGE 17


SYMBOL TABLE
  LABEL                             VALUE 

USART_SEND_ADC_BUF                00000041
W                                 00000000
WCOL                              00000007
WR                                00000001
WREN                              00000002
WRERR                             00000003
Z                                 00000002
_BODEN_OFF                        00003FBF
_BODEN_ON                         00003FFF
_BOREN_OFF                        00003FBF
_BOREN_ON                         00003FFF
_CONFIG                           00002007
_CPD_OFF                          00003FFF
_CPD_ON                           00003EFF
_CP_ALL                           00000FCF
_CP_HALF                          00001FDF
_CP_OFF                           00003FFF
_CP_UPPER_256                     00002FEF
_DEBUG_OFF                        00003FFF
_DEBUG_ON                         000037FF
_DEVID1                           00002006
_FOSC_EXTRC                       00003FFF
_FOSC_HS                          00003FFE
_FOSC_LP                          00003FFC
_FOSC_XT                          00003FFD
_HS_OSC                           00003FFE
_IDLOC0                           00002000
_IDLOC1                           00002001
_IDLOC2                           00002002
_IDLOC3                           00002003
_LP_OSC                           00003FFC
_LVP_OFF                          00003F7F
_LVP_ON                           00003FFF
_PWRTE_OFF                        00003FFF
_PWRTE_ON                         00003FF7
_RC_OSC                           00003FFF
_WDTE_OFF                         00003FFB
_WDTE_ON                          00003FFF
_WDT_OFF                          00003FFB
_WDT_ON                           00003FFF
_WRT_ENABLE_OFF                   00003DFF
_WRT_ENABLE_ON                    00003FFF
_WRT_OFF                          00003DFF
_WRT_ON                           00003FFF
_XT_OSC                           00003FFD
__16F877                          00000001
init                              000000E2
start                             000000E7

Errors   :     0
Warnings :    14 reported,     0 suppressed
Messages :     4 reported,     8 suppressed

